target datalayout = "e-m:e-p270:32:32-p271:32:32-p272:64:64-i64:64-i128:128-f80:128-n8:16:32:64-S128"
target triple = "x86_64-pc-linux-gnu"

@stdout = external global ptr, align 8
@.str = private unnamed_addr constant [2 x i8] c" \00", align 1
@.str.1 = private unnamed_addr constant [4 x i8] c" %d\00", align 1
@.str.2 = private unnamed_addr constant [4 x i8] c"   \00", align 1
@.str.3 = private unnamed_addr constant [2 x i8] c"\0A\00", align 1

; Function Attrs: nounwind uwtable
define void @If_DecPrintConfig(i64 noundef %0) #0 {
  %2 = alloca i64, align 8
  %3 = alloca [1 x i32], align 4
  store i64 %0, ptr %2, align 8, !tbaa !3
  call void @llvm.lifetime.start.p0(i64 4, ptr %3) #7
  %4 = load i64, ptr %2, align 8, !tbaa !3
  %5 = and i64 %4, 65535
  %6 = load i64, ptr %2, align 8, !tbaa !3
  %7 = and i64 %6, 65535
  %8 = shl i64 %7, 16
  %9 = or i64 %5, %8
  %10 = trunc i64 %9 to i32
  %11 = getelementptr inbounds [1 x i32], ptr %3, i64 0, i64 0
  store i32 %10, ptr %11, align 4, !tbaa !7
  %12 = load ptr, ptr @stdout, align 8, !tbaa !9
  %13 = getelementptr inbounds [1 x i32], ptr %3, i64 0, i64 0
  call void @Extra_PrintBinary(ptr noundef %12, ptr noundef %13, i32 noundef 16)
  %14 = call i32 (ptr, ...) @printf(ptr noundef @.str)
  %15 = getelementptr inbounds [1 x i32], ptr %3, i64 0, i64 0
  call void @Kit_DsdPrintFromTruth(ptr noundef %15, i32 noundef 4)
  %16 = call i32 (ptr, ...) @printf(ptr noundef @.str)
  %17 = load i64, ptr %2, align 8, !tbaa !3
  %18 = lshr i64 %17, 16
  %19 = and i64 %18, 7
  %20 = trunc i64 %19 to i32
  %21 = call i32 (ptr, ...) @printf(ptr noundef @.str.1, i32 noundef %20)
  %22 = load i64, ptr %2, align 8, !tbaa !3
  %23 = lshr i64 %22, 20
  %24 = and i64 %23, 7
  %25 = trunc i64 %24 to i32
  %26 = call i32 (ptr, ...) @printf(ptr noundef @.str.1, i32 noundef %25)
  %27 = load i64, ptr %2, align 8, !tbaa !3
  %28 = lshr i64 %27, 24
  %29 = and i64 %28, 7
  %30 = trunc i64 %29 to i32
  %31 = call i32 (ptr, ...) @printf(ptr noundef @.str.1, i32 noundef %30)
  %32 = load i64, ptr %2, align 8, !tbaa !3
  %33 = lshr i64 %32, 28
  %34 = and i64 %33, 7
  %35 = trunc i64 %34 to i32
  %36 = call i32 (ptr, ...) @printf(ptr noundef @.str.1, i32 noundef %35)
  %37 = call i32 (ptr, ...) @printf(ptr noundef @.str.2)
  %38 = load i64, ptr %2, align 8, !tbaa !3
  %39 = lshr i64 %38, 32
  %40 = and i64 %39, 65535
  %41 = load i64, ptr %2, align 8, !tbaa !3
  %42 = lshr i64 %41, 32
  %43 = and i64 %42, 65535
  %44 = shl i64 %43, 16
  %45 = or i64 %40, %44
  %46 = trunc i64 %45 to i32
  %47 = getelementptr inbounds [1 x i32], ptr %3, i64 0, i64 0
  store i32 %46, ptr %47, align 4, !tbaa !7
  %48 = load ptr, ptr @stdout, align 8, !tbaa !9
  %49 = getelementptr inbounds [1 x i32], ptr %3, i64 0, i64 0
  call void @Extra_PrintBinary(ptr noundef %48, ptr noundef %49, i32 noundef 16)
  %50 = call i32 (ptr, ...) @printf(ptr noundef @.str)
  %51 = getelementptr inbounds [1 x i32], ptr %3, i64 0, i64 0
  call void @Kit_DsdPrintFromTruth(ptr noundef %51, i32 noundef 4)
  %52 = call i32 (ptr, ...) @printf(ptr noundef @.str)
  %53 = load i64, ptr %2, align 8, !tbaa !3
  %54 = lshr i64 %53, 48
  %55 = and i64 %54, 7
  %56 = trunc i64 %55 to i32
  %57 = call i32 (ptr, ...) @printf(ptr noundef @.str.1, i32 noundef %56)
  %58 = load i64, ptr %2, align 8, !tbaa !3
  %59 = lshr i64 %58, 52
  %60 = and i64 %59, 7
  %61 = trunc i64 %60 to i32
  %62 = call i32 (ptr, ...) @printf(ptr noundef @.str.1, i32 noundef %61)
  %63 = load i64, ptr %2, align 8, !tbaa !3
  %64 = lshr i64 %63, 56
  %65 = and i64 %64, 7
  %66 = trunc i64 %65 to i32
  %67 = call i32 (ptr, ...) @printf(ptr noundef @.str.1, i32 noundef %66)
  %68 = load i64, ptr %2, align 8, !tbaa !3
  %69 = lshr i64 %68, 60
  %70 = and i64 %69, 7
  %71 = trunc i64 %70 to i32
  %72 = call i32 (ptr, ...) @printf(ptr noundef @.str.1, i32 noundef %71)
  %73 = call i32 (ptr, ...) @printf(ptr noundef @.str.3)
  call void @llvm.lifetime.end.p0(i64 4, ptr %3) #7
  ret void
}