; Function Attrs: nounwind uwtable
define void @If_DecPrintConfig(i64 noundef %0) local_unnamed_addr #0 {
  %2 = alloca [1 x i32], align 4
  call void @llvm.lifetime.start.p0(i64 4, ptr nonnull %2) #14
  %3 = trunc i64 %0 to i32
  %4 = and i32 %3, 65535
  %5 = mul nuw i32 %4, 65537
  store i32 %5, ptr %2, align 4, !tbaa !3
  %6 = load ptr, ptr @stdout, align 8, !tbaa !7
  call void @Extra_PrintBinary(ptr noundef %6, ptr noundef nonnull %2, i32 noundef 16) #14
  %putchar = call i32 @putchar(i32 32)
  call void @Kit_DsdPrintFromTruth(ptr noundef nonnull %2, i32 noundef 4) #14
  %putchar12 = call i32 @putchar(i32 32)
  %7 = lshr i32 %3, 16
  %8 = and i32 %7, 7
  %9 = call i32 (ptr, ...) @printf(ptr noundef nonnull dereferenceable(1) @.str.1, i32 noundef %8)
  %10 = lshr i32 %3, 20
  %11 = and i32 %10, 7
  %12 = call i32 (ptr, ...) @printf(ptr noundef nonnull dereferenceable(1) @.str.1, i32 noundef %11)
  %13 = lshr i32 %3, 24
  %14 = and i32 %13, 7
  %15 = call i32 (ptr, ...) @printf(ptr noundef nonnull dereferenceable(1) @.str.1, i32 noundef %14)
  %16 = lshr i32 %3, 28
  %17 = and i32 %16, 7
  %18 = call i32 (ptr, ...) @printf(ptr noundef nonnull dereferenceable(1) @.str.1, i32 noundef %17)
  %19 = call i32 (ptr, ...) @printf(ptr noundef nonnull dereferenceable(1) @.str.2)
  %20 = lshr i64 %0, 32
  %21 = and i64 %20, 65535
  %22 = shl nuw nsw i64 %20, 16
  %23 = or disjoint i64 %21, %22
  %24 = trunc i64 %23 to i32
  store i32 %24, ptr %2, align 4, !tbaa !3
  %25 = load ptr, ptr @stdout, align 8, !tbaa !7
  call void @Extra_PrintBinary(ptr noundef %25, ptr noundef nonnull %2, i32 noundef 16) #14
  %putchar13 = call i32 @putchar(i32 32)
  call void @Kit_DsdPrintFromTruth(ptr noundef nonnull %2, i32 noundef 4) #14
  %putchar14 = call i32 @putchar(i32 32)
  %26 = lshr i64 %0, 48
  %27 = trunc nuw nsw i64 %26 to i32
  %28 = and i32 %27, 7
  %29 = call i32 (ptr, ...) @printf(ptr noundef nonnull dereferenceable(1) @.str.1, i32 noundef %28)
  %30 = lshr i64 %0, 52
  %31 = trunc nuw nsw i64 %30 to i32
  %32 = and i32 %31, 7
  %33 = call i32 (ptr, ...) @printf(ptr noundef nonnull dereferenceable(1) @.str.1, i32 noundef %32)
  %34 = lshr i64 %0, 56
  %35 = trunc nuw nsw i64 %34 to i32
  %36 = and i32 %35, 7
  %37 = call i32 (ptr, ...) @printf(ptr noundef nonnull dereferenceable(1) @.str.1, i32 noundef %36)
  %38 = lshr i64 %0, 60
  %39 = trunc nuw nsw i64 %38 to i32
  %40 = and i32 %39, 7
  %41 = call i32 (ptr, ...) @printf(ptr noundef nonnull dereferenceable(1) @.str.1, i32 noundef %40)
  %putchar15 = call i32 @putchar(i32 10)
  call void @llvm.lifetime.end.p0(i64 4, ptr nonnull %2) #14
  ret void
}